; Function Attrs: mustprogress nounwind uwtable
define hidden void @_ZN6cineon5CodecD0Ev(ptr noundef nonnull align 8 dereferenceable(16) %this) unnamed_addr #5 align 2 {
entry:
  store ptr getelementptr inbounds ({ [6 x ptr] }, ptr @_ZTVN6cineon5CodecE, i64 0, i32 0, i64 2), ptr %this, align 8
  %scanline.i = getelementptr inbounds i8, ptr %this, i64 8
  %0 = load ptr, ptr %scanline.i, align 8
  %tobool.not.i = icmp eq ptr %0, null
  br i1 %tobool.not.i, label %_ZN6cineon5CodecD2Ev.exit, label %delete.notnull.i

delete.notnull.i:                                 ; preds = %entry
  tail call void @_ZdaPv(ptr noundef nonnull %0) #9
  br label %_ZN6cineon5CodecD2Ev.exit

_ZN6cineon5CodecD2Ev.exit:                        ; preds = %entry, %delete.notnull.i
  tail call void @_ZdlPv(ptr noundef nonnull %this) #9
  ret void
}